; Function Attrs: mustprogress nounwind uwtable
define internal fastcc noundef i32 @_ZN12_GLOBAL__N_115AArch64FastISel28fastEmit_AArch64ISD_PTEST_rrEN4llvm3MVTES2_jj(ptr noundef nonnull align 8 dereferenceable(192) %0, i16 %1, i16 %2, i32 noundef %3, i32 noundef %4) unnamed_addr #0 align 2 {
  %cond = icmp eq i16 %1, 141
  %.not.i = icmp eq i16 %2, 224
  %or.cond = select i1 %cond, i1 %.not.i, i1 false
  br i1 %or.cond, label %6, label %_ZN12_GLOBAL__N_115AArch64FastISel40fastEmit_AArch64ISD_PTEST_MVT_nxv16i1_rrEN4llvm3MVTEjj.exit

6:                                                ; preds = %5
  %7 = getelementptr inbounds nuw i8, ptr %0, i64 176
  %8 = load ptr, ptr %7, align 8
  %9 = getelementptr inbounds nuw i8, ptr %8, i64 422
  %10 = load i8, ptr %9, align 2
  %11 = trunc i8 %10 to i1
  br i1 %11, label %20, label %12

12:                                               ; preds = %6
  %13 = getelementptr inbounds nuw i8, ptr %8, i64 745
  %14 = load i8, ptr %13, align 1
  %15 = trunc i8 %14 to i1
  br i1 %15, label %16, label %_ZN12_GLOBAL__N_115AArch64FastISel40fastEmit_AArch64ISD_PTEST_MVT_nxv16i1_rrEN4llvm3MVTEjj.exit

16:                                               ; preds = %12
  %17 = getelementptr inbounds nuw i8, ptr %8, i64 404
  %18 = load i8, ptr %17, align 4
  %19 = trunc i8 %18 to i1
  br i1 %19, label %20, label %_ZN12_GLOBAL__N_115AArch64FastISel40fastEmit_AArch64ISD_PTEST_MVT_nxv16i1_rrEN4llvm3MVTEjj.exit

20:                                               ; preds = %16, %6
  %21 = tail call i32 @_ZN4llvm8FastISel15fastEmitInst_rrEjPKNS_19TargetRegisterClassEjj(ptr noundef nonnull align 8 dereferenceable(192) %0, i32 noundef 4997, ptr noundef nonnull @_ZN4llvm7AArch6411PPRRegClassE, i32 noundef %3, i32 noundef %4) #21
  br label %_ZN12_GLOBAL__N_115AArch64FastISel40fastEmit_AArch64ISD_PTEST_MVT_nxv16i1_rrEN4llvm3MVTEjj.exit

_ZN12_GLOBAL__N_115AArch64FastISel40fastEmit_AArch64ISD_PTEST_MVT_nxv16i1_rrEN4llvm3MVTEjj.exit: ; preds = %20, %16, %12, %5
  %.0 = phi i32 [ 0, %5 ], [ %21, %20 ], [ 0, %16 ], [ 0, %12 ]
  ret i32 %.0
}